target datalayout = "e-m:e-p270:32:32-p271:32:32-p272:64:64-i64:64-i128:128-f80:128-n8:16:32:64-S128"
target triple = "x86_64-pc-linux-gnu"

%struct.ggml_hash_set = type { i64, ptr, ptr }
%struct.ggml_backend_sched = type { i8, i8, i32, [16 x ptr], [16 x ptr], ptr, %struct.ggml_hash_set, ptr, ptr, ptr, ptr, ptr, ptr, %struct.ggml_cgraph, ptr, i32, i32, i32, i32, [16 x [4 x ptr]], [10 x ptr], i32, ptr, ptr, ptr, ptr, i64, i32 }
%struct.ggml_cgraph = type { i32, i32, i32, ptr, ptr, ptr, ptr, %struct.ggml_hash_set, i32 }

; Function Attrs: mustprogress uwtable
define void @ggml_backend_sched_reset(ptr noundef %0) #0 {
  %2 = alloca ptr, align 8
  store ptr %0, ptr %2, align 8, !tbaa !131
  %3 = load ptr, ptr %2, align 8, !tbaa !131
  %4 = getelementptr inbounds nuw %struct.ggml_backend_sched, ptr %3, i32 0, i32 0
  %5 = load i8, ptr %4, align 8, !tbaa !164, !range !144, !noundef !145
  %6 = trunc i8 %5 to i1
  br i1 %6, label %38, label %7

7:                                                ; preds = %1
  %8 = load ptr, ptr %2, align 8, !tbaa !131
  %9 = getelementptr inbounds nuw %struct.ggml_backend_sched, ptr %8, i32 0, i32 6
  call void @ggml_hash_set_reset(ptr noundef %9)
  %10 = load ptr, ptr %2, align 8, !tbaa !131
  %11 = getelementptr inbounds nuw %struct.ggml_backend_sched, ptr %10, i32 0, i32 7
  %12 = load ptr, ptr %11, align 8, !tbaa !151
  %13 = load ptr, ptr %2, align 8, !tbaa !131
  %14 = getelementptr inbounds nuw %struct.ggml_backend_sched, ptr %13, i32 0, i32 6
  %15 = getelementptr inbounds nuw %struct.ggml_hash_set, ptr %14, i32 0, i32 0
  %16 = load i64, ptr %15, align 8, !tbaa !150
  %17 = mul i64 %16, 4
  call void @llvm.memset.p0.i64(ptr align 4 %12, i8 -1, i64 %17, i1 false)
  %18 = load ptr, ptr %2, align 8, !tbaa !131
  %19 = getelementptr inbounds nuw %struct.ggml_backend_sched, ptr %18, i32 0, i32 8
  %20 = load ptr, ptr %19, align 8, !tbaa !152
  %21 = load ptr, ptr %2, align 8, !tbaa !131
  %22 = getelementptr inbounds nuw %struct.ggml_backend_sched, ptr %21, i32 0, i32 6
  %23 = getelementptr inbounds nuw %struct.ggml_hash_set, ptr %22, i32 0, i32 0
  %24 = load i64, ptr %23, align 8, !tbaa !150
  %25 = load ptr, ptr %2, align 8, !tbaa !131
  %26 = getelementptr inbounds nuw %struct.ggml_backend_sched, ptr %25, i32 0, i32 2
  %27 = load i32, ptr %26, align 4, !tbaa !143
  %28 = sext i32 %27 to i64
  %29 = mul i64 %24, %28
  %30 = load ptr, ptr %2, align 8, !tbaa !131
  %31 = getelementptr inbounds nuw %struct.ggml_backend_sched, ptr %30, i32 0, i32 17
  %32 = load i32, ptr %31, align 8, !tbaa !146
  %33 = sext i32 %32 to i64
  %34 = mul i64 %29, %33
  %35 = mul i64 %34, 8
  call void @llvm.memset.p0.i64(ptr align 8 %20, i8 0, i64 %35, i1 false)
  %36 = load ptr, ptr %2, align 8, !tbaa !131
  %37 = getelementptr inbounds nuw %struct.ggml_backend_sched, ptr %36, i32 0, i32 0
  store i8 1, ptr %37, align 8, !tbaa !164
  br label %38

38:                                               ; preds = %7, %1
  %39 = load ptr, ptr %2, align 8, !tbaa !131
  %40 = getelementptr inbounds nuw %struct.ggml_backend_sched, ptr %39, i32 0, i32 1
  store i8 0, ptr %40, align 1, !tbaa !165
  ret void
}