; Function Attrs: mustprogress uwtable
define void @ggml_backend_sched_reset(ptr noundef %0) local_unnamed_addr #0 {
  %2 = load i8, ptr %0, align 8, !tbaa !132, !range !133, !noundef !134
  %3 = trunc nuw i8 %2 to i1
  br i1 %3, label %22, label %4

4:                                                ; preds = %1
  %5 = getelementptr inbounds nuw i8, ptr %0, i64 272
  tail call void @ggml_hash_set_reset(ptr noundef nonnull %5)
  %6 = getelementptr inbounds nuw i8, ptr %0, i64 296
  %7 = load ptr, ptr %6, align 8, !tbaa !121
  %8 = load i64, ptr %5, align 8, !tbaa !120
  %9 = shl i64 %8, 2
  tail call void @llvm.memset.p0.i64(ptr align 4 %7, i8 -1, i64 %9, i1 false)
  %10 = getelementptr inbounds nuw i8, ptr %0, i64 304
  %11 = load ptr, ptr %10, align 8, !tbaa !122
  %12 = load i64, ptr %5, align 8, !tbaa !120
  %13 = getelementptr inbounds nuw i8, ptr %0, i64 4
  %14 = load i32, ptr %13, align 4, !tbaa !115
  %15 = sext i32 %14 to i64
  %16 = getelementptr inbounds nuw i8, ptr %0, i64 440
  %17 = load i32, ptr %16, align 8, !tbaa !116
  %18 = sext i32 %17 to i64
  %19 = shl i64 %12, 3
  %20 = mul i64 %19, %15
  %21 = mul i64 %20, %18
  tail call void @llvm.memset.p0.i64(ptr align 8 %11, i8 0, i64 %21, i1 false)
  store i8 1, ptr %0, align 8, !tbaa !132
  br label %22

22:                                               ; preds = %4, %1
  %23 = getelementptr inbounds nuw i8, ptr %0, i64 1
  store i8 0, ptr %23, align 1, !tbaa !135
  ret void
}